target datalayout = "e-m:e-p270:32:32-p271:32:32-p272:64:64-i64:64-i128:128-f80:128-n8:16:32:64-S128"
target triple = "x86_64-pc-linux-gnu"

%struct._e_guid_t = type { i32, i16, i16, [8 x i8] }
%struct.nstime_t = type { i64, i32 }
%struct._packet_info = type { ptr, ptr, i32, i32, %struct.nstime_t, %struct.nstime_t, %struct.nstime_t, i8, ptr, ptr, ptr, ptr, %struct._address, %struct._address, %struct._address, %struct._address, %struct._address, %struct._address, i32, ptr, i8, [3 x i8], %struct.anon, i32, i32, i32, i32, ptr, i8, ptr, ptr, i16, i16, i32, i32, i16, i32, i32, ptr, ptr, ptr, i8, i8, i16, i16, i16, i32, i16, i16, ptr, ptr, ptr, ptr, ptr, i32, i32 }
%struct._address = type { i32, i32, ptr, ptr }
%struct.anon = type { i8, [3 x i8] }
%struct._smb2_info_t = type { i16, i32, i32, i32, i64, i64, i32, ptr, ptr, ptr, ptr, ptr, ptr, ptr }
%struct._smb2_saved_info_t = type { i8, i8, i64, i32, i32, %struct.nstime_t, ptr, ptr, ptr, %struct._e_ctx_hnd, ptr, i64, i32, ptr, i32, i32, i16, ptr, %struct._e_guid_t, i32, i32, ptr }
%struct._e_ctx_hnd = type { i32, %struct._e_guid_t }
%struct._proto_node = type { ptr, ptr, ptr, ptr, ptr, ptr, ptr }
%struct.field_info = type { ptr, i32, i32, i32, i32, i32, i32, ptr, ptr, ptr, i32, i32 }
%struct._smb2_fid_info_t = type { i64, i64, i64, i32, i32, i32, i32, ptr, i32, i32 }

@hf_smb2_filename = internal global i32 0, align 4
@hf_smb2_file_id_hash = internal global i32 0, align 4
@hf_smb2_buffer_code = internal global i32 0, align 4
@hf_smb2_buffer_code_len = internal global i32 0, align 4
@hf_smb2_buffer_code_flags_dyn = internal global i32 0, align 4
@hf_smb2_reserved = internal global i32 0, align 4
@hf_smb2_flush_reserved2 = internal global i32 0, align 4
@ett_smb2_buffercode = internal global i32 0, align 4
@ett_smb2_fid_str = internal global i32 0, align 4
@.str.1539 = private unnamed_addr constant [1 x i8] zeroinitializer, align 1
@.str.2167 = private unnamed_addr constant [21 x i8] c"File Id Hash: 0x%04x\00", align 1
@.str.2168 = private unnamed_addr constant [8 x i8] c"<share>\00", align 1
@.str.2169 = private unnamed_addr constant [11 x i8] c", File: %s\00", align 1

; Function Attrs: inlinehint nounwind null_pointer_is_valid sspstrong uwtable
define internal void @proto_item_set_generated(ptr noundef %0) #4 {
  %2 = alloca ptr, align 8
  store ptr %0, ptr %2, align 8
  %3 = load ptr, ptr %2, align 8
  %4 = icmp ne ptr %3, null
  br i1 %4, label %5, label %24

5:                                                ; preds = %1
  br label %6

6:                                                ; preds = %5
  %7 = load ptr, ptr %2, align 8
  %8 = getelementptr inbounds nuw %struct._proto_node, ptr %7, i32 0, i32 5
  %9 = load ptr, ptr %8, align 8
  %10 = icmp ne ptr %9, null
  br i1 %10, label %11, label %22

11:                                               ; preds = %6
  %12 = load ptr, ptr %2, align 8
  %13 = getelementptr inbounds nuw %struct._proto_node, ptr %12, i32 0, i32 5
  %14 = load ptr, ptr %13, align 8
  %15 = getelementptr inbounds nuw %struct.field_info, ptr %14, i32 0, i32 6
  %16 = load i32, ptr %15, align 4
  %17 = or i32 %16, 2
  %18 = load ptr, ptr %2, align 8
  %19 = getelementptr inbounds nuw %struct._proto_node, ptr %18, i32 0, i32 5
  %20 = load ptr, ptr %19, align 8
  %21 = getelementptr inbounds nuw %struct.field_info, ptr %20, i32 0, i32 6
  store i32 %17, ptr %21, align 4
  br label %22

22:                                               ; preds = %11, %6
  br label %23

23:                                               ; preds = %22
  br label %24

24:                                               ; preds = %23, %1
  ret void
}

; Function Attrs: null_pointer_is_valid sspstrong uwtable
define internal i32 @dissect_smb2_buffercode(ptr noundef %0, ptr noundef %1, i32 noundef %2, ptr noundef %3) #0 {
  %5 = alloca ptr, align 8
  %6 = alloca ptr, align 8
  %7 = alloca i32, align 4
  %8 = alloca ptr, align 8
  %9 = alloca ptr, align 8
  %10 = alloca ptr, align 8
  %11 = alloca i16, align 2
  store ptr %0, ptr %5, align 8
  store ptr %1, ptr %6, align 8
  store i32 %2, ptr %7, align 4
  store ptr %3, ptr %8, align 8
  call void @llvm.lifetime.start.p0(i64 8, ptr %9) #13
  call void @llvm.lifetime.start.p0(i64 8, ptr %10) #13
  store ptr null, ptr %10, align 8
  call void @llvm.lifetime.start.p0(i64 2, ptr %11) #13
  %12 = load ptr, ptr %6, align 8
  %13 = load i32, ptr %7, align 4
  %14 = call zeroext i16 @tvb_get_letohs(ptr noundef %12, i32 noundef %13)
  store i16 %14, ptr %11, align 2
  %15 = load ptr, ptr %5, align 8
  %16 = load i32, ptr @hf_smb2_buffer_code, align 4
  %17 = load ptr, ptr %6, align 8
  %18 = load i32, ptr %7, align 4
  %19 = load i16, ptr %11, align 2
  %20 = zext i16 %19 to i32
  %21 = call ptr @proto_tree_add_uint(ptr noundef %15, i32 noundef %16, ptr noundef %17, i32 noundef %18, i32 noundef 2, i32 noundef %20)
  store ptr %21, ptr %10, align 8
  %22 = load ptr, ptr %10, align 8
  %23 = load i32, ptr @ett_smb2_buffercode, align 4
  %24 = call ptr @proto_item_add_subtree(ptr noundef %22, i32 noundef %23)
  store ptr %24, ptr %9, align 8
  %25 = load ptr, ptr %9, align 8
  %26 = load i32, ptr @hf_smb2_buffer_code_len, align 4
  %27 = load ptr, ptr %6, align 8
  %28 = load i32, ptr %7, align 4
  %29 = call ptr @proto_tree_add_item(ptr noundef %25, i32 noundef %26, ptr noundef %27, i32 noundef %28, i32 noundef 2, i32 noundef -2147483648)
  %30 = load ptr, ptr %9, align 8
  %31 = load i32, ptr @hf_smb2_buffer_code_flags_dyn, align 4
  %32 = load ptr, ptr %6, align 8
  %33 = load i32, ptr %7, align 4
  %34 = call ptr @proto_tree_add_item(ptr noundef %30, i32 noundef %31, ptr noundef %32, i32 noundef %33, i32 noundef 2, i32 noundef -2147483648)
  %35 = load i32, ptr %7, align 4
  %36 = add i32 %35, 2
  store i32 %36, ptr %7, align 4
  %37 = load ptr, ptr %8, align 8
  %38 = icmp ne ptr %37, null
  br i1 %38, label %39, label %42

39:                                               ; preds = %4
  %40 = load i16, ptr %11, align 2
  %41 = load ptr, ptr %8, align 8
  store i16 %40, ptr %41, align 2
  br label %42

42:                                               ; preds = %39, %4
  %43 = load i32, ptr %7, align 4
  call void @llvm.lifetime.end.p0(i64 2, ptr %11) #13
  call void @llvm.lifetime.end.p0(i64 8, ptr %10) #13
  call void @llvm.lifetime.end.p0(i64 8, ptr %9) #13
  ret i32 %43
}

; Function Attrs: null_pointer_is_valid sspstrong uwtable
define internal i32 @dissect_smb2_flush_request(ptr noundef %0, ptr noundef %1, ptr noundef %2, i32 noundef %3, ptr noundef %4) #0 {
  %6 = alloca ptr, align 8
  %7 = alloca ptr, align 8
  %8 = alloca ptr, align 8
  %9 = alloca i32, align 4
  %10 = alloca ptr, align 8
  %11 = alloca ptr, align 8
  %12 = alloca ptr, align 8
  %13 = alloca ptr, align 8
  %14 = alloca %struct._e_guid_t, align 4
  store ptr %0, ptr %6, align 8
  store ptr %1, ptr %7, align 8
  store ptr %2, ptr %8, align 8
  store i32 %3, ptr %9, align 4
  store ptr %4, ptr %10, align 8
  call void @llvm.lifetime.start.p0(i64 8, ptr %11) #13
  store ptr null, ptr %11, align 8
  call void @llvm.lifetime.start.p0(i64 8, ptr %12) #13
  call void @llvm.lifetime.start.p0(i64 8, ptr %13) #13
  call void @llvm.lifetime.start.p0(i64 16, ptr %14) #13
  %15 = load ptr, ptr %8, align 8
  %16 = load ptr, ptr %6, align 8
  %17 = load i32, ptr %9, align 4
  %18 = call i32 @dissect_smb2_buffercode(ptr noundef %15, ptr noundef %16, i32 noundef %17, ptr noundef null)
  store i32 %18, ptr %9, align 4
  %19 = load ptr, ptr %8, align 8
  %20 = load i32, ptr @hf_smb2_reserved, align 4
  %21 = load ptr, ptr %6, align 8
  %22 = load i32, ptr %9, align 4
  %23 = call ptr @proto_tree_add_item(ptr noundef %19, i32 noundef %20, ptr noundef %21, i32 noundef %22, i32 noundef 2, i32 noundef 0)
  %24 = load i32, ptr %9, align 4
  %25 = add i32 %24, 2
  store i32 %25, ptr %9, align 4
  %26 = load ptr, ptr %8, align 8
  %27 = load i32, ptr @hf_smb2_flush_reserved2, align 4
  %28 = load ptr, ptr %6, align 8
  %29 = load i32, ptr %9, align 4
  %30 = call ptr @proto_tree_add_item(ptr noundef %26, i32 noundef %27, ptr noundef %28, i32 noundef %29, i32 noundef 4, i32 noundef 0)
  %31 = load i32, ptr %9, align 4
  %32 = add i32 %31, 4
  store i32 %32, ptr %9, align 4
  %33 = load ptr, ptr %6, align 8
  %34 = load i32, ptr %9, align 4
  call void @tvb_get_letohguid(ptr noundef %33, i32 noundef %34, ptr noundef %14)
  %35 = load ptr, ptr %10, align 8
  %36 = getelementptr inbounds nuw %struct._smb2_info_t, ptr %35, i32 0, i32 9
  %37 = load ptr, ptr %36, align 8
  %38 = getelementptr inbounds nuw %struct._smb2_saved_info_t, ptr %37, i32 0, i32 18
  call void @llvm.memcpy.p0.p0.i64(ptr align 8 %38, ptr align 4 %14, i64 16, i1 false)
  %39 = load ptr, ptr %6, align 8
  %40 = load ptr, ptr %7, align 8
  %41 = load ptr, ptr %8, align 8
  %42 = load i32, ptr %9, align 4
  %43 = load ptr, ptr %10, align 8
  %44 = call i32 @dissect_smb2_fid(ptr noundef %39, ptr noundef %40, ptr noundef %41, i32 noundef %42, ptr noundef %43, i32 noundef 2)
  store i32 %44, ptr %9, align 4
  %45 = load ptr, ptr %10, align 8
  %46 = getelementptr inbounds nuw %struct._smb2_info_t, ptr %45, i32 0, i32 9
  %47 = load ptr, ptr %46, align 8
  %48 = getelementptr inbounds nuw %struct._smb2_saved_info_t, ptr %47, i32 0, i32 17
  %49 = load ptr, ptr %48, align 8
  %50 = icmp ne ptr %49, null
  br i1 %50, label %51, label %60

51:                                               ; preds = %5
  %52 = load ptr, ptr %10, align 8
  %53 = getelementptr inbounds nuw %struct._smb2_info_t, ptr %52, i32 0, i32 9
  %54 = load ptr, ptr %53, align 8
  %55 = getelementptr inbounds nuw %struct._smb2_saved_info_t, ptr %54, i32 0, i32 17
  %56 = load ptr, ptr %55, align 8
  %57 = load i32, ptr @ett_smb2_fid_str, align 4
  %58 = call ptr @proto_item_add_subtree(ptr noundef %56, i32 noundef %57)
  store ptr %58, ptr %12, align 8
  %59 = load ptr, ptr %12, align 8
  store ptr %59, ptr %13, align 8
  br label %62

60:                                               ; preds = %5
  %61 = load ptr, ptr %8, align 8
  store ptr %61, ptr %13, align 8
  br label %62

62:                                               ; preds = %60, %51
  %63 = load ptr, ptr %10, align 8
  %64 = getelementptr inbounds nuw %struct._smb2_info_t, ptr %63, i32 0, i32 12
  %65 = load ptr, ptr %64, align 8
  %66 = icmp ne ptr %65, null
  br i1 %66, label %67, label %108

67:                                               ; preds = %62
  %68 = load ptr, ptr %10, align 8
  %69 = getelementptr inbounds nuw %struct._smb2_info_t, ptr %68, i32 0, i32 12
  %70 = load ptr, ptr %69, align 8
  %71 = getelementptr inbounds nuw %struct._smb2_fid_info_t, ptr %70, i32 0, i32 7
  %72 = load ptr, ptr %71, align 8
  %73 = icmp ne ptr %72, null
  br i1 %73, label %74, label %108

74:                                               ; preds = %67
  %75 = load ptr, ptr %10, align 8
  %76 = getelementptr inbounds nuw %struct._smb2_info_t, ptr %75, i32 0, i32 12
  %77 = load ptr, ptr %76, align 8
  %78 = getelementptr inbounds nuw %struct._smb2_fid_info_t, ptr %77, i32 0, i32 7
  %79 = load ptr, ptr %78, align 8
  %80 = call i32 @strcmp(ptr noundef %79, ptr noundef @.str.1539) #16
  %81 = icmp eq i32 %80, 0
  br i1 %81, label %82, label %89

82:                                               ; preds = %74
  %83 = call ptr @wmem_file_scope()
  %84 = call noalias ptr @wmem_strdup(ptr noundef %83, ptr noundef @.str.2168)
  %85 = load ptr, ptr %10, align 8
  %86 = getelementptr inbounds nuw %struct._smb2_info_t, ptr %85, i32 0, i32 12
  %87 = load ptr, ptr %86, align 8
  %88 = getelementptr inbounds nuw %struct._smb2_fid_info_t, ptr %87, i32 0, i32 7
  store ptr %84, ptr %88, align 8
  br label %89

89:                                               ; preds = %82, %74
  %90 = load ptr, ptr %13, align 8
  %91 = load i32, ptr @hf_smb2_filename, align 4
  %92 = load ptr, ptr %6, align 8
  %93 = load ptr, ptr %10, align 8
  %94 = getelementptr inbounds nuw %struct._smb2_info_t, ptr %93, i32 0, i32 12
  %95 = load ptr, ptr %94, align 8
  %96 = getelementptr inbounds nuw %struct._smb2_fid_info_t, ptr %95, i32 0, i32 7
  %97 = load ptr, ptr %96, align 8
  %98 = call ptr @proto_tree_add_string(ptr noundef %90, i32 noundef %91, ptr noundef %92, i32 noundef 0, i32 noundef 0, ptr noundef %97)
  store ptr %98, ptr %11, align 8
  %99 = load ptr, ptr %11, align 8
  call void @proto_item_set_generated(ptr noundef %99)
  %100 = load ptr, ptr %7, align 8
  %101 = getelementptr inbounds nuw %struct._packet_info, ptr %100, i32 0, i32 1
  %102 = load ptr, ptr %101, align 8
  %103 = load ptr, ptr %10, align 8
  %104 = getelementptr inbounds nuw %struct._smb2_info_t, ptr %103, i32 0, i32 12
  %105 = load ptr, ptr %104, align 8
  %106 = getelementptr inbounds nuw %struct._smb2_fid_info_t, ptr %105, i32 0, i32 7
  %107 = load ptr, ptr %106, align 8
  call void (ptr, i32, ptr, ...) @col_append_fstr(ptr noundef %102, i32 noundef 25, ptr noundef @.str.2169, ptr noundef %107)
  br label %108

108:                                              ; preds = %89, %67, %62
  %109 = load ptr, ptr %10, align 8
  %110 = getelementptr inbounds nuw %struct._smb2_info_t, ptr %109, i32 0, i32 9
  %111 = load ptr, ptr %110, align 8
  %112 = getelementptr inbounds nuw %struct._smb2_saved_info_t, ptr %111, i32 0, i32 15
  %113 = load i32, ptr %112, align 4
  %114 = icmp ne i32 %113, 0
  br i1 %114, label %115, label %131

115:                                              ; preds = %108
  %116 = load ptr, ptr %13, align 8
  %117 = load i32, ptr @hf_smb2_file_id_hash, align 4
  %118 = load ptr, ptr %6, align 8
  %119 = load ptr, ptr %10, align 8
  %120 = getelementptr inbounds nuw %struct._smb2_info_t, ptr %119, i32 0, i32 9
  %121 = load ptr, ptr %120, align 8
  %122 = getelementptr inbounds nuw %struct._smb2_saved_info_t, ptr %121, i32 0, i32 15
  %123 = load i32, ptr %122, align 4
  %124 = load ptr, ptr %10, align 8
  %125 = getelementptr inbounds nuw %struct._smb2_info_t, ptr %124, i32 0, i32 9
  %126 = load ptr, ptr %125, align 8
  %127 = getelementptr inbounds nuw %struct._smb2_saved_info_t, ptr %126, i32 0, i32 15
  %128 = load i32, ptr %127, align 4
  %129 = call ptr (ptr, i32, ptr, i32, i32, i32, ptr, ...) @proto_tree_add_uint_format(ptr noundef %116, i32 noundef %117, ptr noundef %118, i32 noundef 0, i32 noundef 0, i32 noundef %123, ptr noundef @.str.2167, i32 noundef %128)
  store ptr %129, ptr %11, align 8
  %130 = load ptr, ptr %11, align 8
  call void @proto_item_set_generated(ptr noundef %130)
  br label %131

131:                                              ; preds = %115, %108
  %132 = load i32, ptr %9, align 4
  call void @llvm.lifetime.end.p0(i64 16, ptr %14) #13
  call void @llvm.lifetime.end.p0(i64 8, ptr %13) #13
  call void @llvm.lifetime.end.p0(i64 8, ptr %12) #13
  call void @llvm.lifetime.end.p0(i64 8, ptr %11) #13
  ret i32 %132
}