; Function Attrs: null_pointer_is_valid sspstrong uwtable
define internal i32 @dissect_smb2_flush_request(ptr noundef %0, ptr noundef %1, ptr noundef %2, i32 noundef %3, ptr noundef captures(none) %4) #0 {
  %6 = alloca %struct._e_guid_t, align 4
  call void @llvm.lifetime.start.p0(i64 16, ptr nonnull %6) #13
  %7 = tail call zeroext i16 @tvb_get_letohs(ptr noundef %0, i32 noundef %3)
  %8 = load i32, ptr @hf_smb2_buffer_code, align 4
  %9 = zext i16 %7 to i32
  %10 = tail call ptr @proto_tree_add_uint(ptr noundef %2, i32 noundef %8, ptr noundef %0, i32 noundef %3, i32 noundef 2, i32 noundef %9)
  %11 = load i32, ptr @ett_smb2_buffercode, align 4
  %12 = tail call ptr @proto_item_add_subtree(ptr noundef %10, i32 noundef %11)
  %13 = load i32, ptr @hf_smb2_buffer_code_len, align 4
  %14 = tail call ptr @proto_tree_add_item(ptr noundef %12, i32 noundef %13, ptr noundef %0, i32 noundef %3, i32 noundef 2, i32 noundef -2147483648)
  %15 = load i32, ptr @hf_smb2_buffer_code_flags_dyn, align 4
  %16 = tail call ptr @proto_tree_add_item(ptr noundef %12, i32 noundef %15, ptr noundef %0, i32 noundef %3, i32 noundef 2, i32 noundef -2147483648)
  %17 = add i32 %3, 2
  %18 = load i32, ptr @hf_smb2_reserved, align 4
  %19 = tail call ptr @proto_tree_add_item(ptr noundef %2, i32 noundef %18, ptr noundef %0, i32 noundef %17, i32 noundef 2, i32 noundef 0)
  %20 = add i32 %3, 4
  %21 = load i32, ptr @hf_smb2_flush_reserved2, align 4
  %22 = tail call ptr @proto_tree_add_item(ptr noundef %2, i32 noundef %21, ptr noundef %0, i32 noundef %20, i32 noundef 4, i32 noundef 0)
  %23 = add i32 %3, 8
  call void @tvb_get_letohguid(ptr noundef %0, i32 noundef %23, ptr noundef nonnull %6)
  %24 = getelementptr inbounds nuw i8, ptr %4, i64 56
  %25 = load ptr, ptr %24, align 8
  %26 = getelementptr inbounds nuw i8, ptr %25, i64 144
  call void @llvm.memcpy.p0.p0.i64(ptr noundef nonnull align 8 dereferenceable(16) %26, ptr noundef nonnull align 4 dereferenceable(16) %6, i64 16, i1 false)
  %27 = call fastcc i32 @dissect_smb2_fid(ptr noundef %0, ptr noundef %1, ptr noundef %2, i32 noundef %23, ptr noundef %4, i32 noundef 2)
  %28 = load ptr, ptr %24, align 8
  %29 = getelementptr inbounds nuw i8, ptr %28, i64 136
  %30 = load ptr, ptr %29, align 8
  %.not = icmp eq ptr %30, null
  br i1 %.not, label %34, label %31

31:                                               ; preds = %5
  %32 = load i32, ptr @ett_smb2_fid_str, align 4
  %33 = call ptr @proto_item_add_subtree(ptr noundef nonnull %30, i32 noundef %32)
  br label %34

34:                                               ; preds = %5, %31
  %.0 = phi ptr [ %33, %31 ], [ %2, %5 ]
  %35 = getelementptr inbounds nuw i8, ptr %4, i64 80
  %36 = load ptr, ptr %35, align 8
  %.not43 = icmp eq ptr %36, null
  br i1 %.not43, label %63, label %37

37:                                               ; preds = %34
  %38 = getelementptr inbounds nuw i8, ptr %36, i64 40
  %39 = load ptr, ptr %38, align 8
  %.not44 = icmp eq ptr %39, null
  br i1 %.not44, label %63, label %40

40:                                               ; preds = %37
  %strcmpload = load i8, ptr %39, align 1
  %41 = icmp eq i8 %strcmpload, 0
  br i1 %41, label %42, label %47

42:                                               ; preds = %40
  %43 = call ptr @wmem_file_scope()
  %44 = call noalias ptr @wmem_strdup(ptr noundef %43, ptr noundef nonnull @.str.2168)
  %45 = load ptr, ptr %35, align 8
  %46 = getelementptr inbounds nuw i8, ptr %45, i64 40
  store ptr %44, ptr %46, align 8
  %.pre = load ptr, ptr %35, align 8
  %.phi.trans.insert = getelementptr inbounds nuw i8, ptr %.pre, i64 40
  %.pre49 = load ptr, ptr %.phi.trans.insert, align 8
  br label %47

47:                                               ; preds = %42, %40
  %48 = phi ptr [ %.pre49, %42 ], [ %39, %40 ]
  %49 = load i32, ptr @hf_smb2_filename, align 4
  %50 = call ptr @proto_tree_add_string(ptr noundef %.0, i32 noundef %49, ptr noundef %0, i32 noundef 0, i32 noundef 0, ptr noundef %48)
  %.not.i = icmp eq ptr %50, null
  br i1 %.not.i, label %proto_item_set_generated.exit, label %51

51:                                               ; preds = %47
  %52 = getelementptr inbounds nuw i8, ptr %50, i64 40
  %53 = load ptr, ptr %52, align 8
  %.not5.i = icmp eq ptr %53, null
  br i1 %.not5.i, label %proto_item_set_generated.exit, label %54

54:                                               ; preds = %51
  %55 = getelementptr inbounds nuw i8, ptr %53, i64 28
  %56 = load i32, ptr %55, align 4
  %57 = or i32 %56, 2
  store i32 %57, ptr %55, align 4
  br label %proto_item_set_generated.exit

proto_item_set_generated.exit:                    ; preds = %47, %51, %54
  %58 = getelementptr inbounds nuw i8, ptr %1, i64 8
  %59 = load ptr, ptr %58, align 8
  %60 = load ptr, ptr %35, align 8
  %61 = getelementptr inbounds nuw i8, ptr %60, i64 40
  %62 = load ptr, ptr %61, align 8
  call void (ptr, i32, ptr, ...) @col_append_fstr(ptr noundef %59, i32 noundef 25, ptr noundef nonnull @.str.2169, ptr noundef %62)
  br label %63

63:                                               ; preds = %proto_item_set_generated.exit, %37, %34
  %64 = load ptr, ptr %24, align 8
  %65 = getelementptr inbounds nuw i8, ptr %64, i64 124
  %66 = load i32, ptr %65, align 4
  %.not45 = icmp eq i32 %66, 0
  br i1 %.not45, label %proto_item_set_generated.exit48, label %67

67:                                               ; preds = %63
  %68 = load i32, ptr @hf_smb2_file_id_hash, align 4
  %69 = call ptr (ptr, i32, ptr, i32, i32, i32, ptr, ...) @proto_tree_add_uint_format(ptr noundef %.0, i32 noundef %68, ptr noundef %0, i32 noundef 0, i32 noundef 0, i32 noundef %66, ptr noundef nonnull @.str.2167, i32 noundef %66)
  %.not.i46 = icmp eq ptr %69, null
  br i1 %.not.i46, label %proto_item_set_generated.exit48, label %70

70:                                               ; preds = %67
  %71 = getelementptr inbounds nuw i8, ptr %69, i64 40
  %72 = load ptr, ptr %71, align 8
  %.not5.i47 = icmp eq ptr %72, null
  br i1 %.not5.i47, label %proto_item_set_generated.exit48, label %73

73:                                               ; preds = %70
  %74 = getelementptr inbounds nuw i8, ptr %72, i64 28
  %75 = load i32, ptr %74, align 4
  %76 = or i32 %75, 2
  store i32 %76, ptr %74, align 4
  br label %proto_item_set_generated.exit48

proto_item_set_generated.exit48:                  ; preds = %73, %70, %67, %63
  call void @llvm.lifetime.end.p0(i64 16, ptr nonnull %6) #13
  ret i32 %27
}